; Function Attrs: mustprogress nounwind uwtable
define internal void @_ZZ32test_submodule_virtual_functionsRN8pybind117module_EEN4PyA2D0Ev(ptr noundef nonnull align 8 dereferenceable(8) initializes((0, 8)) %0) unnamed_addr #6 align 2 personality ptr @__gxx_personality_v0 {
  store ptr getelementptr inbounds nuw inrange(-16, 24) (i8, ptr @_ZTVZ32test_submodule_virtual_functionsRN8pybind117module_EE4PyA2, i64 16), ptr %0, align 8, !tbaa !396
  invoke void @_ZN8pybind115printILNS_19return_value_policyE1EJRA13_KcEEEvDpOT0_(ptr noundef nonnull align 1 dereferenceable(13) @.str.240)
          to label %_ZZ32test_submodule_virtual_functionsRN8pybind117module_EEN4PyA2D2Ev.exit unwind label %2

2:                                                ; preds = %1
  %3 = landingpad { ptr, i32 }
          catch ptr null
  %4 = extractvalue { ptr, i32 } %3, 0
  tail call void @__clang_call_terminate(ptr %4) #32
  unreachable

_ZZ32test_submodule_virtual_functionsRN8pybind117module_EEN4PyA2D2Ev.exit: ; preds = %1
  tail call void @_ZdlPvm(ptr noundef nonnull %0, i64 noundef 8) #34
  ret void
}